; Function Attrs: mustprogress nofree norecurse nosync nounwind willreturn memory(argmem: readwrite) uwtable
define noundef ptr @_ZN6icu_7518GNameSearchHandler10getMatchesERi(ptr nocapture noundef nonnull align 8 dereferenceable(28) %this, ptr nocapture noundef nonnull writeonly align 4 dereferenceable(4) %maxMatchLen) local_unnamed_addr #9 align 2 {
entry:
  %fResults = getelementptr inbounds i8, ptr %this, i64 16
  %0 = load ptr, ptr %fResults, align 8
  %fMaxMatchLen = getelementptr inbounds i8, ptr %this, i64 24
  %1 = load i32, ptr %fMaxMatchLen, align 8
  store i32 %1, ptr %maxMatchLen, align 4
  store ptr null, ptr %fResults, align 8
  store i32 0, ptr %fMaxMatchLen, align 8
  ret ptr %0
}